; Function Attrs: nounwind uwtable
define dso_local void @RS_free(ptr noundef captures(none) %0) local_unnamed_addr #0 {
  %2 = load ptr, ptr %0, align 8
  %.not6 = icmp eq ptr %2, null
  br i1 %.not6, label %._crit_edge, label %.lr.ph

.lr.ph:                                           ; preds = %1, %.lr.ph
  %.07 = phi ptr [ %4, %.lr.ph ], [ %2, %1 ]
  %3 = getelementptr inbounds nuw i8, ptr %.07, i64 8
  %4 = load ptr, ptr %3, align 8
  tail call void @pfree(ptr noundef nonnull %.07) #7
  %.not = icmp eq ptr %4, null
  br i1 %.not, label %._crit_edge, label %.lr.ph, !llvm.loop !8

._crit_edge:                                      ; preds = %.lr.ph, %1
  store ptr null, ptr %0, align 8
  ret void
}